target datalayout = "e-m:e-p270:32:32-p271:32:32-p272:64:64-i64:64-i128:128-f80:128-n8:16:32:64-S128"
target triple = "x86_64-pc-linux-gnu"

%struct.archive_read = type { %struct.archive, ptr, i32, i64, i64, %struct.archive_read_client, [16 x %struct.archive_read_filter_bidder], ptr, i32, i64, i32, i32, [16 x %struct.archive_format_descriptor], ptr, ptr, ptr, %struct.anon }
%struct.archive = type { i32, i32, ptr, i32, ptr, i32, i32, ptr, %struct.archive_string, ptr, i32, i32, ptr, ptr, i64, i64, i64, i8, i64 }
%struct.archive_string = type { ptr, i64, i64 }
%struct.archive_read_client = type { ptr, ptr, ptr, ptr, ptr, ptr, i32, i32, i64, ptr }
%struct.archive_read_filter_bidder = type { ptr, ptr, ptr }
%struct.archive_format_descriptor = type { ptr, ptr, ptr, ptr, ptr, ptr, ptr, ptr, ptr, ptr, ptr }
%struct.anon = type { ptr, ptr, i32, ptr, ptr }
%struct.tar = type { %struct.archive_string, %struct.archive_string, %struct.archive_string, %struct.archive_string, %struct.archive_string, %struct.archive_string, i32, i64, i64, i64, i64, i64, ptr, ptr, i64, i64, i32, i32, i8, i8, %struct.archive_string, ptr, ptr, ptr, ptr, i32, i32, i32, i32, i32 }
%struct.sparse_block = type { ptr, i64, i64, i32 }

; Function Attrs: nounwind uwtable
define internal void @gnu_clear_sparse_list(ptr noundef %0) #0 {
  %2 = alloca ptr, align 8
  %3 = alloca ptr, align 8
  store ptr %0, ptr %2, align 8, !tbaa !13
  call void @llvm.lifetime.start.p0(i64 8, ptr %3) #10
  br label %4

4:                                                ; preds = %9, %1
  %5 = load ptr, ptr %2, align 8, !tbaa !13
  %6 = getelementptr inbounds nuw %struct.tar, ptr %5, i32 0, i32 12
  %7 = load ptr, ptr %6, align 8, !tbaa !52
  %8 = icmp ne ptr %7, null
  br i1 %8, label %9, label %19

9:                                                ; preds = %4
  %10 = load ptr, ptr %2, align 8, !tbaa !13
  %11 = getelementptr inbounds nuw %struct.tar, ptr %10, i32 0, i32 12
  %12 = load ptr, ptr %11, align 8, !tbaa !52
  store ptr %12, ptr %3, align 8, !tbaa !54
  %13 = load ptr, ptr %3, align 8, !tbaa !54
  %14 = getelementptr inbounds nuw %struct.sparse_block, ptr %13, i32 0, i32 0
  %15 = load ptr, ptr %14, align 8, !tbaa !59
  %16 = load ptr, ptr %2, align 8, !tbaa !13
  %17 = getelementptr inbounds nuw %struct.tar, ptr %16, i32 0, i32 12
  store ptr %15, ptr %17, align 8, !tbaa !52
  %18 = load ptr, ptr %3, align 8, !tbaa !54
  call void @free(ptr noundef %18) #10
  br label %4, !llvm.loop !71

19:                                               ; preds = %4
  %20 = load ptr, ptr %2, align 8, !tbaa !13
  %21 = getelementptr inbounds nuw %struct.tar, ptr %20, i32 0, i32 13
  store ptr null, ptr %21, align 8, !tbaa !72
  call void @llvm.lifetime.end.p0(i64 8, ptr %3) #10
  ret void
}

; Function Attrs: nounwind uwtable
define internal i32 @archive_read_format_tar_cleanup(ptr noundef %0) #0 {
  %2 = alloca ptr, align 8
  %3 = alloca ptr, align 8
  store ptr %0, ptr %2, align 8, !tbaa !11
  call void @llvm.lifetime.start.p0(i64 8, ptr %3) #10
  %4 = load ptr, ptr %2, align 8, !tbaa !11
  %5 = getelementptr inbounds nuw %struct.archive_read, ptr %4, i32 0, i32 13
  %6 = load ptr, ptr %5, align 8, !tbaa !20
  %7 = getelementptr inbounds nuw %struct.archive_format_descriptor, ptr %6, i32 0, i32 0
  %8 = load ptr, ptr %7, align 8, !tbaa !36
  store ptr %8, ptr %3, align 8, !tbaa !13
  %9 = load ptr, ptr %3, align 8, !tbaa !13
  call void @gnu_clear_sparse_list(ptr noundef %9)
  %10 = load ptr, ptr %3, align 8, !tbaa !13
  %11 = getelementptr inbounds nuw %struct.tar, ptr %10, i32 0, i32 0
  call void @archive_string_free(ptr noundef %11)
  %12 = load ptr, ptr %3, align 8, !tbaa !13
  %13 = getelementptr inbounds nuw %struct.tar, ptr %12, i32 0, i32 1
  call void @archive_string_free(ptr noundef %13)
  %14 = load ptr, ptr %3, align 8, !tbaa !13
  %15 = getelementptr inbounds nuw %struct.tar, ptr %14, i32 0, i32 2
  call void @archive_string_free(ptr noundef %15)
  %16 = load ptr, ptr %3, align 8, !tbaa !13
  %17 = getelementptr inbounds nuw %struct.tar, ptr %16, i32 0, i32 3
  call void @archive_string_free(ptr noundef %17)
  %18 = load ptr, ptr %3, align 8, !tbaa !13
  %19 = getelementptr inbounds nuw %struct.tar, ptr %18, i32 0, i32 4
  call void @archive_string_free(ptr noundef %19)
  %20 = load ptr, ptr %3, align 8, !tbaa !13
  %21 = getelementptr inbounds nuw %struct.tar, ptr %20, i32 0, i32 5
  call void @archive_string_free(ptr noundef %21)
  %22 = load ptr, ptr %3, align 8, !tbaa !13
  %23 = getelementptr inbounds nuw %struct.tar, ptr %22, i32 0, i32 20
  call void @archive_string_free(ptr noundef %23)
  %24 = load ptr, ptr %3, align 8, !tbaa !13
  call void @free(ptr noundef %24) #10
  %25 = load ptr, ptr %2, align 8, !tbaa !11
  %26 = getelementptr inbounds nuw %struct.archive_read, ptr %25, i32 0, i32 13
  %27 = load ptr, ptr %26, align 8, !tbaa !20
  %28 = getelementptr inbounds nuw %struct.archive_format_descriptor, ptr %27, i32 0, i32 0
  store ptr null, ptr %28, align 8, !tbaa !36
  call void @llvm.lifetime.end.p0(i64 8, ptr %3) #10
  ret i32 0
}