; Function Attrs: nounwind uwtable
define internal noundef i32 @archive_read_format_tar_cleanup(ptr noundef readonly captures(none) %0) #0 {
  %2 = getelementptr inbounds nuw i8, ptr %0, i64 2072
  %3 = load ptr, ptr %2, align 8, !tbaa !17
  %4 = load ptr, ptr %3, align 8, !tbaa !36
  %5 = getelementptr inbounds nuw i8, ptr %4, i64 192
  %6 = load ptr, ptr %5, align 8, !tbaa !48
  %.not6.i = icmp eq ptr %6, null
  br i1 %.not6.i, label %gnu_clear_sparse_list.exit, label %.lr.ph.i

.lr.ph.i:                                         ; preds = %1, %.lr.ph.i
  %7 = phi ptr [ %9, %.lr.ph.i ], [ %6, %1 ]
  %8 = load ptr, ptr %7, align 8, !tbaa !49
  store ptr %8, ptr %5, align 8, !tbaa !48
  tail call void @free(ptr noundef nonnull %7) #13
  %9 = load ptr, ptr %5, align 8, !tbaa !48
  %.not.i = icmp eq ptr %9, null
  br i1 %.not.i, label %gnu_clear_sparse_list.exit, label %.lr.ph.i, !llvm.loop !51

gnu_clear_sparse_list.exit:                       ; preds = %.lr.ph.i, %1
  %10 = getelementptr inbounds nuw i8, ptr %4, i64 200
  store ptr null, ptr %10, align 8, !tbaa !52
  tail call void @archive_string_free(ptr noundef nonnull %4) #13
  %11 = getelementptr inbounds nuw i8, ptr %4, i64 24
  tail call void @archive_string_free(ptr noundef nonnull %11) #13
  %12 = getelementptr inbounds nuw i8, ptr %4, i64 48
  tail call void @archive_string_free(ptr noundef nonnull %12) #13
  %13 = getelementptr inbounds nuw i8, ptr %4, i64 72
  tail call void @archive_string_free(ptr noundef nonnull %13) #13
  %14 = getelementptr inbounds nuw i8, ptr %4, i64 96
  tail call void @archive_string_free(ptr noundef nonnull %14) #13
  %15 = getelementptr inbounds nuw i8, ptr %4, i64 120
  tail call void @archive_string_free(ptr noundef nonnull %15) #13
  %16 = getelementptr inbounds nuw i8, ptr %4, i64 240
  tail call void @archive_string_free(ptr noundef nonnull %16) #13
  tail call void @free(ptr noundef nonnull %4) #13
  %17 = load ptr, ptr %2, align 8, !tbaa !17
  store ptr null, ptr %17, align 8, !tbaa !36
  ret i32 0
}